target datalayout = "e-m:e-p270:32:32-p271:32:32-p272:64:64-i64:64-i128:128-f80:128-n8:16:32:64-S128"
target triple = "x86_64-pc-linux-gnu"

%struct.If_Obj_t_ = type { i32, i32, i32, i32, i32, i32, ptr, ptr, ptr, float, float, float, %union.anon, ptr, %struct.If_Cut_t_ }
%union.anon = type { ptr }
%struct.If_Cut_t_ = type <{ float, float, float, float, i32, i32, i32, i64, [0 x i32] }>
%struct.Vec_Ptr_t_ = type { i32, i32, ptr }
%struct.If_Man_t_ = type { ptr, ptr, ptr, ptr, ptr, ptr, ptr, ptr, [5 x i32], i32, float, float, float, float, i32, float, i32, i32, [4 x ptr], ptr, i32, i32, i32, ptr, [3 x [32 x i32]], i32, i32, i32, ptr, ptr, ptr, ptr, ptr, ptr, ptr, i32, i32, i32, [16 x i32], i32, i32, i32, i32, ptr, ptr, ptr, ptr, ptr, i32, i32, [32 x i32], [32 x i32], i32, i32, i32, i32, ptr, [16 x ptr], [16 x ptr], [16 x ptr], [16 x ptr], [16 x ptr], [16 x ptr], [16 x ptr], ptr, ptr, ptr, ptr, [32 x i8], i32, i32, i32, [6 x i64], [2 x i32], [2 x i32], ptr, [15 x i32], ptr, ptr, ptr, [16 x i32], ptr, ptr, ptr, ptr, [2 x i32], [2 x i32], [2 x ptr], ptr }
%struct.Vec_Int_t_ = type { i32, i32, ptr }

@.str.4 = private unnamed_addr constant [55 x i8] c"If_ManNodeShapeMap(): Computing local AIG has failed.\0A\00", align 1

; Function Attrs: inlinehint nounwind uwtable
define internal ptr @Vec_PtrEntry(ptr noundef %0, i32 noundef %1) #2 {
  %3 = alloca ptr, align 8
  %4 = alloca i32, align 4
  store ptr %0, ptr %3, align 8, !tbaa !10
  store i32 %1, ptr %4, align 4, !tbaa !23
  %5 = load ptr, ptr %3, align 8, !tbaa !10
  %6 = getelementptr inbounds nuw %struct.Vec_Ptr_t_, ptr %5, i32 0, i32 2
  %7 = load ptr, ptr %6, align 8, !tbaa !28
  %8 = load i32, ptr %4, align 4, !tbaa !23
  %9 = sext i32 %8 to i64
  %10 = getelementptr inbounds ptr, ptr %7, i64 %9
  %11 = load ptr, ptr %10, align 8, !tbaa !24
  ret ptr %11
}

; Function Attrs: inlinehint nounwind uwtable
define internal i32 @Vec_PtrSize(ptr noundef %0) #2 {
  %2 = alloca ptr, align 8
  store ptr %0, ptr %2, align 8, !tbaa !10
  %3 = load ptr, ptr %2, align 8, !tbaa !10
  %4 = getelementptr inbounds nuw %struct.Vec_Ptr_t_, ptr %3, i32 0, i32 1
  %5 = load i32, ptr %4, align 4, !tbaa !25
  ret i32 %5
}

; Function Attrs: inlinehint nounwind uwtable
define internal void @Vec_PtrClear(ptr noundef %0) #2 {
  %2 = alloca ptr, align 8
  store ptr %0, ptr %2, align 8, !tbaa !10
  %3 = load ptr, ptr %2, align 8, !tbaa !10
  %4 = getelementptr inbounds nuw %struct.Vec_Ptr_t_, ptr %3, i32 0, i32 1
  store i32 0, ptr %4, align 4, !tbaa !25
  ret void
}

; Function Attrs: inlinehint nounwind uwtable
define internal void @Vec_IntClear(ptr noundef %0) #2 {
  %2 = alloca ptr, align 8
  store ptr %0, ptr %2, align 8, !tbaa !46
  %3 = load ptr, ptr %2, align 8, !tbaa !46
  %4 = getelementptr inbounds nuw %struct.Vec_Int_t_, ptr %3, i32 0, i32 1
  store i32 0, ptr %4, align 4, !tbaa !48
  ret void
}

; Function Attrs: inlinehint nounwind uwtable
define internal void @If_CutSetDataInt(ptr noundef %0, i32 noundef %1) #2 {
  %3 = alloca ptr, align 8
  %4 = alloca i32, align 4
  store ptr %0, ptr %3, align 8, !tbaa !12
  store i32 %1, ptr %4, align 4, !tbaa !23
  %5 = load i32, ptr %4, align 4, !tbaa !23
  %6 = load ptr, ptr %3, align 8, !tbaa !12
  store i32 %5, ptr %6, align 4, !tbaa !23
  ret void
}

; Function Attrs: inlinehint nounwind uwtable
define internal ptr @If_ManObj(ptr noundef %0, i32 noundef %1) #2 {
  %3 = alloca ptr, align 8
  %4 = alloca i32, align 4
  store ptr %0, ptr %3, align 8, !tbaa !3
  store i32 %1, ptr %4, align 4, !tbaa !23
  %5 = load ptr, ptr %3, align 8, !tbaa !3
  %6 = getelementptr inbounds nuw %struct.If_Man_t_, ptr %5, i32 0, i32 5
  %7 = load ptr, ptr %6, align 8, !tbaa !45
  %8 = load i32, ptr %4, align 4, !tbaa !23
  %9 = call ptr @Vec_PtrEntry(ptr noundef %7, i32 noundef %8)
  ret ptr %9
}

; Function Attrs: inlinehint nounwind uwtable
define internal ptr @If_ObjCutBest(ptr noundef %0) #2 {
  %2 = alloca ptr, align 8
  store ptr %0, ptr %2, align 8, !tbaa !8
  %3 = load ptr, ptr %2, align 8, !tbaa !8
  %4 = getelementptr inbounds nuw %struct.If_Obj_t_, ptr %3, i32 0, i32 14
  ret ptr %4
}

; Function Attrs: nounwind uwtable
define i32 @If_ManNodeShapeMap(ptr noundef %0, ptr noundef %1, ptr noundef %2) #0 {
  %4 = alloca i32, align 4
  %5 = alloca ptr, align 8
  %6 = alloca ptr, align 8
  %7 = alloca ptr, align 8
  %8 = alloca ptr, align 8
  %9 = alloca ptr, align 8
  %10 = alloca i32, align 4
  %11 = alloca i32, align 4
  %12 = alloca i32, align 4
  store ptr %0, ptr %5, align 8, !tbaa !3
  store ptr %1, ptr %6, align 8, !tbaa !8
  store ptr %2, ptr %7, align 8, !tbaa !46
  call void @llvm.lifetime.start.p0(i64 8, ptr %8) #9
  call void @llvm.lifetime.start.p0(i64 8, ptr %9) #9
  call void @llvm.lifetime.start.p0(i64 4, ptr %10) #9
  call void @llvm.lifetime.start.p0(i64 4, ptr %11) #9
  %13 = load ptr, ptr %6, align 8, !tbaa !8
  %14 = call ptr @If_ObjCutBest(ptr noundef %13)
  store ptr %14, ptr %8, align 8, !tbaa !12
  store i32 0, ptr %10, align 4, !tbaa !23
  br label %15

15:                                               ; preds = %39, %3
  %16 = load i32, ptr %10, align 4, !tbaa !23
  %17 = load ptr, ptr %8, align 8, !tbaa !12
  %18 = getelementptr inbounds nuw %struct.If_Cut_t_, ptr %17, i32 0, i32 7
  %19 = load i64, ptr %18, align 4
  %20 = lshr i64 %19, 24
  %21 = and i64 %20, 255
  %22 = trunc i64 %21 to i32
  %23 = icmp slt i32 %16, %22
  br i1 %23, label %24, label %34

24:                                               ; preds = %15
  %25 = load ptr, ptr %5, align 8, !tbaa !3
  %26 = load ptr, ptr %8, align 8, !tbaa !12
  %27 = getelementptr inbounds nuw %struct.If_Cut_t_, ptr %26, i32 0, i32 8
  %28 = load i32, ptr %10, align 4, !tbaa !23
  %29 = sext i32 %28 to i64
  %30 = getelementptr inbounds [0 x i32], ptr %27, i64 0, i64 %29
  %31 = load i32, ptr %30, align 4, !tbaa !23
  %32 = call ptr @If_ManObj(ptr noundef %25, i32 noundef %31)
  store ptr %32, ptr %9, align 8, !tbaa !8
  %33 = icmp ne ptr %32, null
  br label %34

34:                                               ; preds = %24, %15
  %35 = phi i1 [ false, %15 ], [ %33, %24 ]
  br i1 %35, label %36, label %42

36:                                               ; preds = %34
  %37 = load ptr, ptr %9, align 8, !tbaa !8
  %38 = call ptr @If_ObjCutBest(ptr noundef %37)
  call void @If_CutSetDataInt(ptr noundef %38, i32 noundef 1)
  br label %39

39:                                               ; preds = %36
  %40 = load i32, ptr %10, align 4, !tbaa !23
  %41 = add nsw i32 %40, 1
  store i32 %41, ptr %10, align 4, !tbaa !23
  br label %15, !llvm.loop !53

42:                                               ; preds = %34
  %43 = load ptr, ptr %7, align 8, !tbaa !46
  call void @Vec_IntClear(ptr noundef %43)
  %44 = load ptr, ptr %5, align 8, !tbaa !3
  %45 = getelementptr inbounds nuw %struct.If_Man_t_, ptr %44, i32 0, i32 7
  %46 = load ptr, ptr %45, align 8, !tbaa !29
  call void @Vec_PtrClear(ptr noundef %46)
  %47 = load ptr, ptr %5, align 8, !tbaa !3
  %48 = load ptr, ptr %6, align 8, !tbaa !8
  %49 = load ptr, ptr %5, align 8, !tbaa !3
  %50 = getelementptr inbounds nuw %struct.If_Man_t_, ptr %49, i32 0, i32 7
  %51 = load ptr, ptr %50, align 8, !tbaa !29
  %52 = load ptr, ptr %7, align 8, !tbaa !46
  %53 = call i32 @If_ManNodeShapeMap_rec(ptr noundef %47, ptr noundef %48, ptr noundef %51, ptr noundef %52)
  store i32 %53, ptr %11, align 4, !tbaa !23
  %54 = load i32, ptr %11, align 4, !tbaa !23
  %55 = icmp eq i32 %54, -1
  br i1 %55, label %56, label %57

56:                                               ; preds = %42
  call void (i32, ptr, ...) @Abc_Print(i32 noundef -1, ptr noundef @.str.4)
  store i32 0, ptr %4, align 4
  store i32 1, ptr %12, align 4
  br label %107

57:                                               ; preds = %42
  store i32 0, ptr %10, align 4, !tbaa !23
  br label %58

58:                                               ; preds = %82, %57
  %59 = load i32, ptr %10, align 4, !tbaa !23
  %60 = load ptr, ptr %8, align 8, !tbaa !12
  %61 = getelementptr inbounds nuw %struct.If_Cut_t_, ptr %60, i32 0, i32 7
  %62 = load i64, ptr %61, align 4
  %63 = lshr i64 %62, 24
  %64 = and i64 %63, 255
  %65 = trunc i64 %64 to i32
  %66 = icmp slt i32 %59, %65
  br i1 %66, label %67, label %77

67:                                               ; preds = %58
  %68 = load ptr, ptr %5, align 8, !tbaa !3
  %69 = load ptr, ptr %8, align 8, !tbaa !12
  %70 = getelementptr inbounds nuw %struct.If_Cut_t_, ptr %69, i32 0, i32 8
  %71 = load i32, ptr %10, align 4, !tbaa !23
  %72 = sext i32 %71 to i64
  %73 = getelementptr inbounds [0 x i32], ptr %70, i64 0, i64 %72
  %74 = load i32, ptr %73, align 4, !tbaa !23
  %75 = call ptr @If_ManObj(ptr noundef %68, i32 noundef %74)
  store ptr %75, ptr %9, align 8, !tbaa !8
  %76 = icmp ne ptr %75, null
  br label %77

77:                                               ; preds = %67, %58
  %78 = phi i1 [ false, %58 ], [ %76, %67 ]
  br i1 %78, label %79, label %85

79:                                               ; preds = %77
  %80 = load ptr, ptr %9, align 8, !tbaa !8
  %81 = call ptr @If_ObjCutBest(ptr noundef %80)
  call void @If_CutSetDataInt(ptr noundef %81, i32 noundef 0)
  br label %82

82:                                               ; preds = %79
  %83 = load i32, ptr %10, align 4, !tbaa !23
  %84 = add nsw i32 %83, 1
  store i32 %84, ptr %10, align 4, !tbaa !23
  br label %58, !llvm.loop !54

85:                                               ; preds = %77
  store i32 0, ptr %10, align 4, !tbaa !23
  br label %86

86:                                               ; preds = %103, %85
  %87 = load i32, ptr %10, align 4, !tbaa !23
  %88 = load ptr, ptr %5, align 8, !tbaa !3
  %89 = getelementptr inbounds nuw %struct.If_Man_t_, ptr %88, i32 0, i32 7
  %90 = load ptr, ptr %89, align 8, !tbaa !29
  %91 = call i32 @Vec_PtrSize(ptr noundef %90)
  %92 = icmp slt i32 %87, %91
  br i1 %92, label %93, label %99

93:                                               ; preds = %86
  %94 = load ptr, ptr %5, align 8, !tbaa !3
  %95 = getelementptr inbounds nuw %struct.If_Man_t_, ptr %94, i32 0, i32 7
  %96 = load ptr, ptr %95, align 8, !tbaa !29
  %97 = load i32, ptr %10, align 4, !tbaa !23
  %98 = call ptr @Vec_PtrEntry(ptr noundef %96, i32 noundef %97)
  store ptr %98, ptr %8, align 8, !tbaa !12
  br label %99

99:                                               ; preds = %93, %86
  %100 = phi i1 [ false, %86 ], [ true, %93 ]
  br i1 %100, label %101, label %106

101:                                              ; preds = %99
  %102 = load ptr, ptr %8, align 8, !tbaa !12
  call void @If_CutSetDataInt(ptr noundef %102, i32 noundef 0)
  br label %103

103:                                              ; preds = %101
  %104 = load i32, ptr %10, align 4, !tbaa !23
  %105 = add nsw i32 %104, 1
  store i32 %105, ptr %10, align 4, !tbaa !23
  br label %86, !llvm.loop !55

106:                                              ; preds = %99
  store i32 1, ptr %4, align 4
  store i32 1, ptr %12, align 4
  br label %107

107:                                              ; preds = %106, %56
  call void @llvm.lifetime.end.p0(i64 4, ptr %11) #9
  call void @llvm.lifetime.end.p0(i64 4, ptr %10) #9
  call void @llvm.lifetime.end.p0(i64 8, ptr %9) #9
  call void @llvm.lifetime.end.p0(i64 8, ptr %8) #9
  %108 = load i32, ptr %4, align 4
  ret i32 %108
}