; Function Attrs: nounwind uwtable
define range(i32 0, 2) i32 @If_ManNodeShapeMap(ptr noundef %0, ptr noundef %1, ptr noundef %2) local_unnamed_addr #0 {
  %4 = getelementptr inbounds nuw i8, ptr %1, i64 116
  %5 = getelementptr inbounds nuw i8, ptr %1, i64 108
  %6 = load i64, ptr %5, align 4
  %7 = and i64 %6, 4278190080
  %.not47 = icmp eq i64 %7, 0
  br i1 %.not47, label %.critedge, label %.lr.ph

.lr.ph:                                           ; preds = %3
  %8 = getelementptr i8, ptr %0, i64 40
  %.val38 = load ptr, ptr %8, align 8, !tbaa !38
  %9 = getelementptr i8, ptr %.val38, i64 8
  %.val38.val = load ptr, ptr %9, align 8, !tbaa !11
  br label %10

10:                                               ; preds = %.lr.ph, %16
  %indvars.iv = phi i64 [ 0, %.lr.ph ], [ %indvars.iv.next, %16 ]
  %11 = getelementptr inbounds nuw [0 x i32], ptr %4, i64 0, i64 %indvars.iv
  %12 = load i32, ptr %11, align 4, !tbaa !3
  %13 = sext i32 %12 to i64
  %14 = getelementptr inbounds ptr, ptr %.val38.val, i64 %13
  %15 = load ptr, ptr %14, align 8, !tbaa !12
  %.not = icmp eq ptr %15, null
  br i1 %.not, label %.critedge, label %16

16:                                               ; preds = %10
  %17 = getelementptr inbounds nuw i8, ptr %15, i64 80
  store i32 1, ptr %17, align 4, !tbaa !3
  %indvars.iv.next = add nuw nsw i64 %indvars.iv, 1
  %18 = load i64, ptr %5, align 4
  %19 = lshr i64 %18, 24
  %20 = and i64 %19, 255
  %21 = icmp samesign ult i64 %indvars.iv.next, %20
  br i1 %21, label %10, label %.critedge, !llvm.loop !46

.critedge:                                        ; preds = %10, %16, %3
  %22 = getelementptr inbounds nuw i8, ptr %2, i64 4
  store i32 0, ptr %22, align 4, !tbaa !40
  %23 = getelementptr inbounds nuw i8, ptr %0, i64 56
  %24 = load ptr, ptr %23, align 8, !tbaa !22
  %25 = getelementptr inbounds nuw i8, ptr %24, i64 4
  store i32 0, ptr %25, align 4, !tbaa !7
  %26 = tail call i32 @If_ManNodeShapeMap_rec(ptr noundef %0, ptr noundef nonnull %1, ptr noundef %24, ptr noundef %2)
  %27 = icmp eq i32 %26, -1
  br i1 %27, label %32, label %.preheader

.preheader:                                       ; preds = %.critedge
  %28 = load i64, ptr %5, align 4
  %29 = and i64 %28, 4278190080
  %.not48 = icmp eq i64 %29, 0
  br i1 %.not48, label %.critedge2, label %.lr.ph42

.lr.ph42:                                         ; preds = %.preheader
  %30 = getelementptr i8, ptr %0, i64 40
  %.val37 = load ptr, ptr %30, align 8, !tbaa !38
  %31 = getelementptr i8, ptr %.val37, i64 8
  %.val37.val = load ptr, ptr %31, align 8, !tbaa !11
  br label %33

32:                                               ; preds = %.critedge
  tail call void (i32, ptr, ...) @Abc_Print(i32 poison, ptr noundef nonnull @.str.4)
  br label %.critedge4

33:                                               ; preds = %.lr.ph42, %39
  %indvars.iv50 = phi i64 [ 0, %.lr.ph42 ], [ %indvars.iv.next51, %39 ]
  %34 = getelementptr inbounds nuw [0 x i32], ptr %4, i64 0, i64 %indvars.iv50
  %35 = load i32, ptr %34, align 4, !tbaa !3
  %36 = sext i32 %35 to i64
  %37 = getelementptr inbounds ptr, ptr %.val37.val, i64 %36
  %38 = load ptr, ptr %37, align 8, !tbaa !12
  %.not35 = icmp eq ptr %38, null
  br i1 %.not35, label %.critedge2, label %39

39:                                               ; preds = %33
  %40 = getelementptr inbounds nuw i8, ptr %38, i64 80
  store i32 0, ptr %40, align 4, !tbaa !3
  %indvars.iv.next51 = add nuw nsw i64 %indvars.iv50, 1
  %41 = load i64, ptr %5, align 4
  %42 = lshr i64 %41, 24
  %43 = and i64 %42, 255
  %44 = icmp samesign ult i64 %indvars.iv.next51, %43
  br i1 %44, label %33, label %.critedge2, !llvm.loop !47

.critedge2:                                       ; preds = %33, %39, %.preheader
  %45 = load ptr, ptr %23, align 8, !tbaa !22
  %46 = getelementptr i8, ptr %45, i64 4
  %.val44 = load i32, ptr %46, align 4, !tbaa !7
  %47 = icmp sgt i32 %.val44, 0
  br i1 %47, label %.lr.ph46, label %.critedge4

.lr.ph46:                                         ; preds = %.critedge2
  %48 = getelementptr i8, ptr %45, i64 8
  %.val36 = load ptr, ptr %48, align 8, !tbaa !11
  br label %49

49:                                               ; preds = %.lr.ph46, %49
  %indvars.iv53 = phi i64 [ 0, %.lr.ph46 ], [ %indvars.iv.next54, %49 ]
  %50 = getelementptr inbounds nuw ptr, ptr %.val36, i64 %indvars.iv53
  %51 = load ptr, ptr %50, align 8, !tbaa !12
  store i32 0, ptr %51, align 4, !tbaa !3
  %indvars.iv.next54 = add nuw nsw i64 %indvars.iv53, 1
  %.val = load i32, ptr %46, align 4, !tbaa !7
  %52 = sext i32 %.val to i64
  %53 = icmp slt i64 %indvars.iv.next54, %52
  br i1 %53, label %49, label %.critedge4, !llvm.loop !48

.critedge4:                                       ; preds = %49, %.critedge2, %32
  %.0 = phi i32 [ 0, %32 ], [ 1, %.critedge2 ], [ 1, %49 ]
  ret i32 %.0
}